target datalayout = "e-m:e-p270:32:32-p271:32:32-p272:64:64-i64:64-i128:128-f80:128-n8:16:32:64-S128"
target triple = "x86_64-unknown-linux-gnu"

%"class.google::protobuf::internal::InternalMetadata" = type { i64 }
%union.anon = type { %"struct.pb::JavaFeatures::Impl_" }
%"struct.pb::JavaFeatures::Impl_" = type { %"class.google::protobuf::internal::HasBits", %"class.google::protobuf::internal::CachedSize", i8, i32 }
%"class.google::protobuf::internal::HasBits" = type { [1 x i32] }
%"class.google::protobuf::internal::CachedSize" = type { i32 }
%"class.pb::JavaFeatures" = type { %"class.google::protobuf::Message", %union.anon }
%"class.google::protobuf::Message" = type { %"class.google::protobuf::MessageLite" }
%"class.google::protobuf::MessageLite" = type { ptr, %"class.google::protobuf::internal::InternalMetadata" }
%"class.absl::lts_20230802::log_internal::NullStream" = type { i8 }
%"struct.google::protobuf::internal::InternalMetadata::Container" = type { %"struct.google::protobuf::internal::InternalMetadata::ContainerBase", %"class.google::protobuf::UnknownFieldSet" }
%"struct.google::protobuf::internal::InternalMetadata::ContainerBase" = type { ptr }
%"class.google::protobuf::UnknownFieldSet" = type { %"class.std::vector" }
%"class.std::vector" = type { %"struct.std::_Vector_base" }
%"struct.std::_Vector_base" = type { %"struct.std::_Vector_base<google::protobuf::UnknownField, std::allocator<google::protobuf::UnknownField>>::_Vector_impl" }
%"struct.std::_Vector_base<google::protobuf::UnknownField, std::allocator<google::protobuf::UnknownField>>::_Vector_impl" = type { %"struct.std::_Vector_base<google::protobuf::UnknownField, std::allocator<google::protobuf::UnknownField>>::_Vector_impl_data" }
%"struct.std::_Vector_base<google::protobuf::UnknownField, std::allocator<google::protobuf::UnknownField>>::_Vector_impl_data" = type { ptr, ptr, ptr }
%"class.google::protobuf::internal::InternalVisibility" = type { i8 }

@_ZTVN6google8protobuf7MessageE = external unnamed_addr constant { [13 x ptr] }, align 8

; Function Attrs: mustprogress nounwind uwtable
define linkonce_odr hidden void @_ZN6google8protobuf8internal18InternalVisibilityC2Ev(ptr noundef nonnull align 1 dereferenceable(1) %this) unnamed_addr #5 comdat align 2 {
entry:
  %this.addr = alloca ptr, align 8
  store ptr %this, ptr %this.addr, align 8
  ret void
}

; Function Attrs: mustprogress nounwind uwtable
define linkonce_odr hidden void @_ZN6google8protobuf8internal16InternalMetadataC2EPNS0_5ArenaE(ptr noundef nonnull align 8 dereferenceable(8) %this, ptr noundef %arena) unnamed_addr #5 comdat align 2 {
entry:
  %this.addr = alloca ptr, align 8
  %arena.addr = alloca ptr, align 8
  store ptr %this, ptr %this.addr, align 8
  store ptr %arena, ptr %arena.addr, align 8
  %this1 = load ptr, ptr %this.addr, align 8
  %0 = load ptr, ptr %arena.addr, align 8
  %1 = ptrtoint ptr %0 to i64
  %ptr_ = getelementptr inbounds %"class.google::protobuf::internal::InternalMetadata", ptr %this1, i32 0, i32 0
  store i64 %1, ptr %ptr_, align 8
  ret void
}

; Function Attrs: mustprogress nounwind uwtable
define linkonce_odr hidden noundef ptr @_ZNK6google8protobuf8internal16InternalMetadata8PtrValueINS2_9ContainerINS0_15UnknownFieldSetEEEEEPT_v(ptr noundef nonnull align 8 dereferenceable(8) %this) #5 comdat align 2 {
entry:
  %this.addr = alloca ptr, align 8
  store ptr %this, ptr %this.addr, align 8
  %this1 = load ptr, ptr %this.addr, align 8
  %ptr_ = getelementptr inbounds %"class.google::protobuf::internal::InternalMetadata", ptr %this1, i32 0, i32 0
  %0 = load i64, ptr %ptr_, align 8
  %and = and i64 %0, -2
  %1 = inttoptr i64 %and to ptr
  ret ptr %1
}

; Function Attrs: mustprogress nounwind uwtable
define linkonce_odr hidden noundef nonnull align 1 dereferenceable(1) ptr @_ZN4absl12lts_2023080212log_internal10NullStream14InternalStreamEv(ptr noundef nonnull align 1 dereferenceable(1) %this) #5 comdat align 2 {
entry:
  %this.addr = alloca ptr, align 8
  store ptr %this, ptr %this.addr, align 8
  %this1 = load ptr, ptr %this.addr, align 8
  ret ptr %this1
}

; Function Attrs: mustprogress nounwind uwtable
define linkonce_odr hidden void @_ZN6google8protobuf11MessageLiteD2Ev(ptr noundef nonnull align 8 dereferenceable(16) %this) unnamed_addr #5 comdat align 2 {
entry:
  %this.addr = alloca ptr, align 8
  store ptr %this, ptr %this.addr, align 8
  ret void
}

; Function Attrs: mustprogress nounwind uwtable
define linkonce_odr hidden void @_ZN6google8protobuf8internal10CachedSizeC2Ei(ptr noundef nonnull align 4 dereferenceable(4) %this, i32 noundef %desired) unnamed_addr #5 comdat align 2 {
entry:
  %this.addr = alloca ptr, align 8
  %desired.addr = alloca i32, align 4
  store ptr %this, ptr %this.addr, align 8
  store i32 %desired, ptr %desired.addr, align 4
  %this1 = load ptr, ptr %this.addr, align 8
  %atom_ = getelementptr inbounds %"class.google::protobuf::internal::CachedSize", ptr %this1, i32 0, i32 0
  %0 = load i32, ptr %desired.addr, align 4
  store i32 %0, ptr %atom_, align 4
  ret void
}

; Function Attrs: mustprogress uwtable
define linkonce_odr hidden void @_ZN6google8protobuf11MessageLite19internal_visibilityEv() #4 comdat align 2 {
entry:
  %retval = alloca %"class.google::protobuf::internal::InternalVisibility", align 1
  call void @_ZN6google8protobuf8internal18InternalVisibilityC2Ev(ptr noundef nonnull align 1 dereferenceable(1) %retval)
  ret void
}

; Function Attrs: mustprogress uwtable
define linkonce_odr hidden void @_ZN6google8protobuf11MessageLiteC2EPNS0_5ArenaE(ptr noundef nonnull align 8 dereferenceable(16) %this, ptr noundef %arena) unnamed_addr #4 comdat align 2 {
entry:
  %this.addr = alloca ptr, align 8
  %arena.addr = alloca ptr, align 8
  store ptr %this, ptr %this.addr, align 8
  store ptr %arena, ptr %arena.addr, align 8
  %this1 = load ptr, ptr %this.addr, align 8
  store ptr getelementptr inbounds ({ [12 x ptr] }, ptr @_ZTVN6google8protobuf11MessageLiteE, i32 0, i32 0, i32 2), ptr %this1, align 8
  %_internal_metadata_ = getelementptr inbounds %"class.google::protobuf::MessageLite", ptr %this1, i32 0, i32 1
  %0 = load ptr, ptr %arena.addr, align 8
  call void @_ZN6google8protobuf8internal16InternalMetadataC2EPNS0_5ArenaE(ptr noundef nonnull align 8 dereferenceable(8) %_internal_metadata_, ptr noundef %0)
  ret void
}

; Function Attrs: mustprogress uwtable
define void @_ZN2pb12JavaFeatures9MergeImplERN6google8protobuf11MessageLiteERKS3_(ptr noundef nonnull align 8 dereferenceable(16) %to_msg, ptr noundef nonnull align 8 dereferenceable(16) %from_msg) #4 align 2 {
entry:
  %this.addr.i25 = alloca ptr, align 8
  %this.addr.i23 = alloca ptr, align 8
  %this.addr.i.i.i = alloca ptr, align 8
  %retval.i.i = alloca ptr, align 8
  %this.addr.i3.i = alloca ptr, align 8
  %default_instance.addr.i.i = alloca ptr, align 8
  %this.addr.i.i = alloca ptr, align 8
  %this.addr.i21 = alloca ptr, align 8
  %other.addr.i = alloca ptr, align 8
  %this.addr.i16 = alloca ptr, align 8
  %index.addr.i17 = alloca i32, align 4
  %this.addr.i = alloca ptr, align 8
  %index.addr.i = alloca i32, align 4
  %to_msg.addr = alloca ptr, align 8
  %from_msg.addr = alloca ptr, align 8
  %_this = alloca ptr, align 8
  %from = alloca ptr, align 8
  %ref.tmp = alloca %"class.absl::lts_20230802::log_internal::NullStream", align 1
  %cached_has_bits = alloca i32, align 4
  store ptr %to_msg, ptr %to_msg.addr, align 8
  store ptr %from_msg, ptr %from_msg.addr, align 8
  %0 = load ptr, ptr %to_msg.addr, align 8
  store ptr %0, ptr %_this, align 8
  %1 = load ptr, ptr %from_msg.addr, align 8
  store ptr %1, ptr %from, align 8
  br label %while.cond

while.cond:                                       ; preds = %while.body, %entry
  br i1 false, label %while.body, label %while.end

while.body:                                       ; preds = %while.cond
  %call = call noundef nonnull align 1 dereferenceable(1) ptr @_ZN4absl12lts_2023080212log_internal10NullStream14InternalStreamEv(ptr noundef nonnull align 1 dereferenceable(1) %ref.tmp)
  br label %while.cond, !llvm.loop !4

while.end:                                        ; preds = %while.cond
  store i32 0, ptr %cached_has_bits, align 4
  %2 = load ptr, ptr %from, align 8
  %3 = getelementptr inbounds %"class.pb::JavaFeatures", ptr %2, i32 0, i32 1
  %_has_bits_ = getelementptr inbounds %"struct.pb::JavaFeatures::Impl_", ptr %3, i32 0, i32 0
  store ptr %_has_bits_, ptr %this.addr.i16, align 8
  store i32 0, ptr %index.addr.i17, align 4
  %this1.i18 = load ptr, ptr %this.addr.i16, align 8
  %4 = load i32, ptr %index.addr.i17, align 4
  %idxprom.i19 = sext i32 %4 to i64
  %arrayidx.i20 = getelementptr inbounds [1 x i32], ptr %this1.i18, i64 0, i64 %idxprom.i19
  %5 = load i32, ptr %arrayidx.i20, align 4
  store i32 %5, ptr %cached_has_bits, align 4
  %6 = load i32, ptr %cached_has_bits, align 4
  %and = and i32 %6, 3
  %tobool = icmp ne i32 %and, 0
  br i1 %tobool, label %if.then, label %if.end12

if.then:                                          ; preds = %while.end
  %7 = load i32, ptr %cached_has_bits, align 4
  %and2 = and i32 %7, 1
  %tobool3 = icmp ne i32 %and2, 0
  br i1 %tobool3, label %if.then4, label %if.end

if.then4:                                         ; preds = %if.then
  %8 = load ptr, ptr %from, align 8
  %9 = getelementptr inbounds %"class.pb::JavaFeatures", ptr %8, i32 0, i32 1
  %legacy_closed_enum_ = getelementptr inbounds %"struct.pb::JavaFeatures::Impl_", ptr %9, i32 0, i32 2
  %10 = load i8, ptr %legacy_closed_enum_, align 8
  %tobool5 = trunc i8 %10 to i1
  %11 = load ptr, ptr %_this, align 8
  %12 = getelementptr inbounds %"class.pb::JavaFeatures", ptr %11, i32 0, i32 1
  %legacy_closed_enum_6 = getelementptr inbounds %"struct.pb::JavaFeatures::Impl_", ptr %12, i32 0, i32 2
  %frombool = zext i1 %tobool5 to i8
  store i8 %frombool, ptr %legacy_closed_enum_6, align 8
  br label %if.end

if.end:                                           ; preds = %if.then4, %if.then
  %13 = load i32, ptr %cached_has_bits, align 4
  %and7 = and i32 %13, 2
  %tobool8 = icmp ne i32 %and7, 0
  br i1 %tobool8, label %if.then9, label %if.end11

if.then9:                                         ; preds = %if.end
  %14 = load ptr, ptr %from, align 8
  %15 = getelementptr inbounds %"class.pb::JavaFeatures", ptr %14, i32 0, i32 1
  %utf8_validation_ = getelementptr inbounds %"struct.pb::JavaFeatures::Impl_", ptr %15, i32 0, i32 3
  %16 = load i32, ptr %utf8_validation_, align 4
  %17 = load ptr, ptr %_this, align 8
  %18 = getelementptr inbounds %"class.pb::JavaFeatures", ptr %17, i32 0, i32 1
  %utf8_validation_10 = getelementptr inbounds %"struct.pb::JavaFeatures::Impl_", ptr %18, i32 0, i32 3
  store i32 %16, ptr %utf8_validation_10, align 4
  br label %if.end11

if.end11:                                         ; preds = %if.then9, %if.end
  br label %if.end12

if.end12:                                         ; preds = %if.end11, %while.end
  %19 = load i32, ptr %cached_has_bits, align 4
  %20 = load ptr, ptr %_this, align 8
  %21 = getelementptr inbounds %"class.pb::JavaFeatures", ptr %20, i32 0, i32 1
  %_has_bits_13 = getelementptr inbounds %"struct.pb::JavaFeatures::Impl_", ptr %21, i32 0, i32 0
  store ptr %_has_bits_13, ptr %this.addr.i, align 8
  store i32 0, ptr %index.addr.i, align 4
  %this1.i = load ptr, ptr %this.addr.i, align 8
  %22 = load i32, ptr %index.addr.i, align 4
  %idxprom.i = sext i32 %22 to i64
  %arrayidx.i = getelementptr inbounds [1 x i32], ptr %this1.i, i64 0, i64 %idxprom.i
  %23 = load i32, ptr %arrayidx.i, align 4
  %or = or i32 %23, %19
  store i32 %or, ptr %arrayidx.i, align 4
  %24 = load ptr, ptr %_this, align 8
  %_internal_metadata_ = getelementptr inbounds %"class.google::protobuf::MessageLite", ptr %24, i32 0, i32 1
  %25 = load ptr, ptr %from, align 8
  %_internal_metadata_15 = getelementptr inbounds %"class.google::protobuf::MessageLite", ptr %25, i32 0, i32 1
  store ptr %_internal_metadata_, ptr %this.addr.i21, align 8
  store ptr %_internal_metadata_15, ptr %other.addr.i, align 8
  %this1.i22 = load ptr, ptr %this.addr.i21, align 8
  %26 = load ptr, ptr %other.addr.i, align 8
  store ptr %26, ptr %this.addr.i.i, align 8
  %this1.i.i = load ptr, ptr %this.addr.i.i, align 8
  store ptr %this1.i.i, ptr %this.addr.i25, align 8
  %this1.i26 = load ptr, ptr %this.addr.i25, align 8
  %27 = load i64, ptr %this1.i26, align 8
  %and.i27 = and i64 %27, 1
  %tobool.i28 = icmp ne i64 %and.i27, 0
  br i1 %tobool.i28, label %if.then.i, label %_ZN6google8protobuf8internal16InternalMetadata9MergeFromINS0_15UnknownFieldSetEEEvRKS2_.exit

if.then.i:                                        ; preds = %if.end12
  %28 = load ptr, ptr %other.addr.i, align 8
  store ptr %28, ptr %this.addr.i3.i, align 8
  store ptr null, ptr %default_instance.addr.i.i, align 8
  %this1.i4.i = load ptr, ptr %this.addr.i3.i, align 8
  store ptr %this1.i4.i, ptr %this.addr.i.i.i, align 8
  %this1.i.i.i = load ptr, ptr %this.addr.i.i.i, align 8
  store ptr %this1.i.i.i, ptr %this.addr.i23, align 8
  %this1.i24 = load ptr, ptr %this.addr.i23, align 8
  %29 = load i64, ptr %this1.i24, align 8
  %and.i = and i64 %29, 1
  %tobool.i = icmp ne i64 %and.i, 0
  br i1 %tobool.i, label %if.then.i.i, label %if.else.i.i

if.then.i.i:                                      ; preds = %if.then.i
  %call2.i.i = call noundef ptr @_ZNK6google8protobuf8internal16InternalMetadata8PtrValueINS2_9ContainerINS0_15UnknownFieldSetEEEEEPT_v(ptr noundef nonnull align 8 dereferenceable(8) %this1.i4.i)
  %unknown_fields.i.i = getelementptr inbounds %"struct.google::protobuf::internal::InternalMetadata::Container", ptr %call2.i.i, i32 0, i32 1
  store ptr %unknown_fields.i.i, ptr %retval.i.i, align 8
  br label %_ZNK6google8protobuf8internal16InternalMetadata14unknown_fieldsINS0_15UnknownFieldSetEEERKT_PFS7_vE.exit.i

if.else.i.i:                                      ; preds = %if.then.i
  %30 = load ptr, ptr %default_instance.addr.i.i, align 8
  %call3.i.i = call noundef nonnull align 8 dereferenceable(24) ptr %30()
  store ptr %call3.i.i, ptr %retval.i.i, align 8
  br label %_ZNK6google8protobuf8internal16InternalMetadata14unknown_fieldsINS0_15UnknownFieldSetEEERKT_PFS7_vE.exit.i

_ZNK6google8protobuf8internal16InternalMetadata14unknown_fieldsINS0_15UnknownFieldSetEEERKT_PFS7_vE.exit.i: ; preds = %if.else.i.i, %if.then.i.i
  %31 = load ptr, ptr %retval.i.i, align 8
  call void @_ZN6google8protobuf8internal16InternalMetadata11DoMergeFromINS0_15UnknownFieldSetEEEvRKT_(ptr noundef nonnull align 8 dereferenceable(8) %this1.i22, ptr noundef nonnull align 8 dereferenceable(24) %31)
  br label %_ZN6google8protobuf8internal16InternalMetadata9MergeFromINS0_15UnknownFieldSetEEEvRKS2_.exit

_ZN6google8protobuf8internal16InternalMetadata9MergeFromINS0_15UnknownFieldSetEEEvRKS2_.exit: ; preds = %_ZNK6google8protobuf8internal16InternalMetadata14unknown_fieldsINS0_15UnknownFieldSetEEERKT_PFS7_vE.exit.i, %if.end12
  ret void
}

; Function Attrs: mustprogress nounwind uwtable
define linkonce_odr hidden void @_ZN6google8protobuf7MessageD2Ev(ptr noundef nonnull align 8 dereferenceable(16) %this) unnamed_addr #5 comdat align 2 {
entry:
  %this.addr = alloca ptr, align 8
  store ptr %this, ptr %this.addr, align 8
  %this1 = load ptr, ptr %this.addr, align 8
  call void @_ZN6google8protobuf11MessageLiteD2Ev(ptr noundef nonnull align 8 dereferenceable(16) %this1) #3
  ret void
}

; Function Attrs: mustprogress uwtable
define linkonce_odr hidden void @_ZN2pb12JavaFeatures10SharedCtorEPN6google8protobuf5ArenaE(ptr noundef nonnull align 8 dereferenceable(32) %this, ptr noundef %arena) #4 comdat align 2 {
entry:
  %this.addr.i2 = alloca ptr, align 8
  %this.addr.i = alloca ptr, align 8
  %arena.addr.i = alloca ptr, align 8
  %this.addr = alloca ptr, align 8
  %arena.addr = alloca ptr, align 8
  store ptr %this, ptr %this.addr, align 8
  store ptr %arena, ptr %arena.addr, align 8
  %this1 = load ptr, ptr %this.addr, align 8
  %0 = getelementptr inbounds %"class.pb::JavaFeatures", ptr %this1, i32 0, i32 1
  call void @_ZN6google8protobuf11MessageLite19internal_visibilityEv()
  %1 = load ptr, ptr %arena.addr, align 8
  store ptr %0, ptr %this.addr.i, align 8
  store ptr %1, ptr %arena.addr.i, align 8
  %this1.i = load ptr, ptr %this.addr.i, align 8
  store ptr %this1.i, ptr %this.addr.i2, align 8
  %this1.i3 = load ptr, ptr %this.addr.i2, align 8
  %arrayinit.end.i = getelementptr inbounds i32, ptr %this1.i3, i64 1
  br label %arrayinit.body.i

arrayinit.body.i:                                 ; preds = %arrayinit.body.i, %entry
  %arrayinit.cur.i = phi ptr [ %this1.i3, %entry ], [ %arrayinit.next.i, %arrayinit.body.i ]
  store i32 0, ptr %arrayinit.cur.i, align 4
  %arrayinit.next.i = getelementptr inbounds i32, ptr %arrayinit.cur.i, i64 1
  %arrayinit.done.i = icmp eq ptr %arrayinit.next.i, %arrayinit.end.i
  br i1 %arrayinit.done.i, label %_ZN6google8protobuf8internal7HasBitsILi1EEC2Ev.exit, label %arrayinit.body.i

_ZN6google8protobuf8internal7HasBitsILi1EEC2Ev.exit: ; preds = %arrayinit.body.i
  %_cached_size_.i = getelementptr inbounds %"struct.pb::JavaFeatures::Impl_", ptr %this1.i, i32 0, i32 1
  call void @_ZN6google8protobuf8internal10CachedSizeC2Ei(ptr noundef nonnull align 4 dereferenceable(4) %_cached_size_.i, i32 noundef 0) #3
  %2 = getelementptr inbounds %"class.pb::JavaFeatures", ptr %this1, i32 0, i32 1
  %add.ptr = getelementptr inbounds i8, ptr %2, i64 8
  call void @llvm.memset.p0.i64(ptr align 1 %add.ptr, i8 0, i64 8, i1 false)
  ret void
}

; Function Attrs: mustprogress uwtable
define linkonce_odr hidden void @_ZN6google8protobuf7MessageC2EPNS0_5ArenaE(ptr noundef nonnull align 8 dereferenceable(16) %this, ptr noundef %arena) unnamed_addr #4 comdat align 2 {
entry:
  %this.addr = alloca ptr, align 8
  %arena.addr = alloca ptr, align 8
  store ptr %this, ptr %this.addr, align 8
  store ptr %arena, ptr %arena.addr, align 8
  %this1 = load ptr, ptr %this.addr, align 8
  %0 = load ptr, ptr %arena.addr, align 8
  call void @_ZN6google8protobuf11MessageLiteC2EPNS0_5ArenaE(ptr noundef nonnull align 8 dereferenceable(16) %this1, ptr noundef %0)
  store ptr getelementptr inbounds ({ [13 x ptr] }, ptr @_ZTVN6google8protobuf7MessageE, i32 0, i32 0, i32 2), ptr %this1, align 8
  ret void
}

; Function Attrs: mustprogress uwtable
define linkonce_odr hidden void @_ZN2pb12JavaFeatures9MergeFromERKS0_(ptr noundef nonnull align 8 dereferenceable(32) %this, ptr noundef nonnull align 8 dereferenceable(32) %from) #4 comdat align 2 {
entry:
  %this.addr = alloca ptr, align 8
  %from.addr = alloca ptr, align 8
  store ptr %this, ptr %this.addr, align 8
  store ptr %from, ptr %from.addr, align 8
  %this1 = load ptr, ptr %this.addr, align 8
  %0 = load ptr, ptr %from.addr, align 8
  call void @_ZN2pb12JavaFeatures9MergeImplERN6google8protobuf11MessageLiteERKS3_(ptr noundef nonnull align 8 dereferenceable(16) %this1, ptr noundef nonnull align 8 dereferenceable(16) %0)
  ret void
}

; Function Attrs: mustprogress uwtable
define void @_ZN2pb12JavaFeaturesC2EPN6google8protobuf5ArenaE(ptr noundef nonnull align 8 dereferenceable(32) %this, ptr noundef %arena) unnamed_addr #4 align 2 personality ptr @__gxx_personality_v0 {
entry:
  %this.addr = alloca ptr, align 8
  %arena.addr = alloca ptr, align 8
  %exn.slot = alloca ptr, align 8
  %ehselector.slot = alloca i32, align 4
  store ptr %this, ptr %this.addr, align 8
  store ptr %arena, ptr %arena.addr, align 8
  %this1 = load ptr, ptr %this.addr, align 8
  %0 = load ptr, ptr %arena.addr, align 8
  call void @_ZN6google8protobuf7MessageC2EPNS0_5ArenaE(ptr noundef nonnull align 8 dereferenceable(16) %this1, ptr noundef %0)
  store ptr getelementptr inbounds ({ [13 x ptr] }, ptr @_ZTVN2pb12JavaFeaturesE, i32 0, i32 0, i32 2), ptr %this1, align 8
  %1 = load ptr, ptr %arena.addr, align 8
  invoke void @_ZN2pb12JavaFeatures10SharedCtorEPN6google8protobuf5ArenaE(ptr noundef nonnull align 8 dereferenceable(32) %this1, ptr noundef %1)
          to label %invoke.cont unwind label %lpad

invoke.cont:                                      ; preds = %entry
  ret void

lpad:                                             ; preds = %entry
  %2 = landingpad { ptr, i32 }
          cleanup
  %3 = extractvalue { ptr, i32 } %2, 0
  store ptr %3, ptr %exn.slot, align 8
  %4 = extractvalue { ptr, i32 } %2, 1
  store i32 %4, ptr %ehselector.slot, align 4
  call void @_ZN6google8protobuf7MessageD2Ev(ptr noundef nonnull align 8 dereferenceable(16) %this1) #3
  br label %eh.resume

eh.resume:                                        ; preds = %lpad
  %exn = load ptr, ptr %exn.slot, align 8
  %sel = load i32, ptr %ehselector.slot, align 4
  %lpad.val = insertvalue { ptr, i32 } poison, ptr %exn, 0
  %lpad.val2 = insertvalue { ptr, i32 } %lpad.val, i32 %sel, 1
  resume { ptr, i32 } %lpad.val2
}

; Function Attrs: mustprogress uwtable
define void @_ZN2pb12JavaFeaturesC2EPN6google8protobuf5ArenaERKS0_(ptr noundef nonnull align 8 dereferenceable(32) %this, ptr noundef %arena, ptr noundef nonnull align 8 dereferenceable(32) %from) unnamed_addr #4 align 2 personality ptr @__gxx_personality_v0 {
entry:
  %this.addr = alloca ptr, align 8
  %arena.addr = alloca ptr, align 8
  %from.addr = alloca ptr, align 8
  %exn.slot = alloca ptr, align 8
  %ehselector.slot = alloca i32, align 4
  store ptr %this, ptr %this.addr, align 8
  store ptr %arena, ptr %arena.addr, align 8
  store ptr %from, ptr %from.addr, align 8
  %this1 = load ptr, ptr %this.addr, align 8
  %0 = load ptr, ptr %arena.addr, align 8
  call void @_ZN2pb12JavaFeaturesC2EPN6google8protobuf5ArenaE(ptr noundef nonnull align 8 dereferenceable(32) %this1, ptr noundef %0)
  %1 = load ptr, ptr %from.addr, align 8
  invoke void @_ZN2pb12JavaFeatures9MergeFromERKS0_(ptr noundef nonnull align 8 dereferenceable(32) %this1, ptr noundef nonnull align 8 dereferenceable(32) %1)
          to label %invoke.cont unwind label %lpad

invoke.cont:                                      ; preds = %entry
  ret void

lpad:                                             ; preds = %entry
  %2 = landingpad { ptr, i32 }
          cleanup
  %3 = extractvalue { ptr, i32 } %2, 0
  store ptr %3, ptr %exn.slot, align 8
  %4 = extractvalue { ptr, i32 } %2, 1
  store i32 %4, ptr %ehselector.slot, align 4
  call void @_ZN2pb12JavaFeaturesD2Ev(ptr noundef nonnull align 8 dereferenceable(32) %this1) #3
  br label %eh.resume

eh.resume:                                        ; preds = %lpad
  %exn = load ptr, ptr %exn.slot, align 8
  %sel = load i32, ptr %ehselector.slot, align 4
  %lpad.val = insertvalue { ptr, i32 } poison, ptr %exn, 0
  %lpad.val2 = insertvalue { ptr, i32 } %lpad.val, i32 %sel, 1
  resume { ptr, i32 } %lpad.val2
}